#include <math.h>
#include <stdio.h>
#include <stdlib.h>
#include <string.h>

int u[1000];
int main()
{
	int n,k,i,j;
	scanf("%d%d",&n,&k);
	for(i=0;i<n;i++)
	{
		scanf("%d",&u[i]);
	}
	for(i=0;i<n;i++)
	{
		for(j=i+1;j<n;j++)
		{
			if(u[i]+u[j]==k)
			{
				break;
			}
		}
		if(j!=n)
		{
			break;
		}
	}
	if(i!=n)
	{
		printf("yes");
	}
	else
	{
		printf("no");
	}
	return 0;
}
